target datalayout = "e-m:e-p270:32:32-p271:32:32-p272:64:64-i64:64-i128:128-f80:128-n8:16:32:64-S128"
target triple = "x86_64-pc-linux-gnu"

; Function Attrs: nounwind sspstrong uwtable
define dso_local i64 @rb_enumeratorize_with_size(i64 noundef %0, i64 noundef %1, i32 noundef %2, ptr noundef %3, ptr noundef %4) #0 {
  %6 = alloca i64, align 8
  %7 = alloca i64, align 8
  %8 = alloca i32, align 4
  %9 = alloca ptr, align 8
  %10 = alloca ptr, align 8
  store i64 %0, ptr %6, align 8, !tbaa !7
  store i64 %1, ptr %7, align 8, !tbaa !7
  store i32 %2, ptr %8, align 4, !tbaa !11
  store ptr %3, ptr %9, align 8, !tbaa !13
  store ptr %4, ptr %10, align 8, !tbaa !16
  %11 = load i64, ptr %6, align 8, !tbaa !7
  %12 = load i64, ptr %7, align 8, !tbaa !7
  %13 = load i32, ptr %8, align 4, !tbaa !11
  %14 = load ptr, ptr %9, align 8, !tbaa !13
  %15 = load ptr, ptr %10, align 8, !tbaa !16
  %16 = call i32 @rb_keyword_given_p()
  %17 = call i64 @rb_enumeratorize_with_size_kw(i64 noundef %11, i64 noundef %12, i32 noundef %13, ptr noundef %14, ptr noundef %15, i32 noundef %16)
  ret i64 %17
}

; Function Attrs: nounwind sspstrong uwtable
define internal i64 @enumerator_with_object(i64 noundef %0, i64 noundef %1) #0 {
  %3 = alloca i64, align 8
  %4 = alloca i64, align 8
  %5 = alloca i64, align 8
  store i64 %0, ptr %4, align 8, !tbaa !7
  store i64 %1, ptr %5, align 8, !tbaa !7
  br label %6

6:                                                ; preds = %2
  %7 = call i32 @rb_block_given_p()
  %8 = icmp ne i32 %7, 0
  br i1 %8, label %14, label %9

9:                                                ; preds = %6
  %10 = load i64, ptr %4, align 8, !tbaa !7
  %11 = call i64 @rb_frame_this_func()
  %12 = call i64 @rb_id2sym(i64 noundef %11)
  %13 = call i64 @rb_enumeratorize_with_size(i64 noundef %10, i64 noundef %12, i32 noundef 1, ptr noundef %5, ptr noundef @enumerator_enum_size)
  store i64 %13, ptr %3, align 8
  br label %20

14:                                               ; preds = %6
  br label %15

15:                                               ; preds = %14
  %16 = load i64, ptr %4, align 8, !tbaa !7
  %17 = load i64, ptr %5, align 8, !tbaa !7
  %18 = call i64 @enumerator_block_call(i64 noundef %16, ptr noundef @enumerator_with_object_i, i64 noundef %17)
  %19 = load i64, ptr %5, align 8, !tbaa !7
  store i64 %19, ptr %3, align 8
  br label %20

20:                                               ; preds = %15, %9
  %21 = load i64, ptr %3, align 8
  ret i64 %21
}