; Function Attrs: nounwind sspstrong uwtable
define internal i64 @enumerator_with_object(i64 noundef %0, i64 noundef %1) #0 {
  %3 = alloca i64, align 8
  store i64 %1, ptr %3, align 8, !tbaa !7
  %4 = tail call i32 @rb_block_given_p() #18
  %.not = icmp eq i32 %4, 0
  br i1 %.not, label %5, label %10

5:                                                ; preds = %2
  %6 = tail call i64 @rb_frame_this_func() #18
  %7 = tail call i64 @rb_id2sym(i64 noundef %6) #18
  %8 = tail call i32 @rb_keyword_given_p() #18
  %9 = call range(i64 1, -7) i64 @rb_enumeratorize_with_size_kw(i64 noundef %0, i64 noundef %7, i32 noundef 1, ptr noundef nonnull %3, ptr noundef nonnull @enumerator_enum_size, i32 noundef %8)
  br label %12

10:                                               ; preds = %2
  %11 = tail call fastcc i64 @enumerator_block_call(i64 noundef %0, ptr noundef nonnull @enumerator_with_object_i, i64 noundef %1)
  br label %12

12:                                               ; preds = %10, %5
  %.0 = phi i64 [ %1, %10 ], [ %9, %5 ]
  ret i64 %.0
}